target datalayout = "e-m:e-p270:32:32-p271:32:32-p272:64:64-i64:64-i128:128-f80:128-n8:16:32:64-S128"
target triple = "x86_64-pc-linux-gnu"

%struct.darktable_t = type { %struct.dt_codepath_t, i32, i32, ptr, ptr, ptr, ptr, ptr, ptr, ptr, ptr, ptr, ptr, ptr, ptr, ptr, ptr, ptr, ptr, ptr, ptr, ptr, ptr, ptr, ptr, ptr, ptr, ptr, ptr, ptr, [64 x %struct.dt_pthread_mutex_t], %struct.dt_pthread_mutex_t, %struct.dt_pthread_mutex_t, %struct.dt_pthread_mutex_t, %struct.dt_pthread_mutex_t, %struct.dt_pthread_mutex_t, ptr, ptr, ptr, ptr, ptr, ptr, ptr, ptr, ptr, ptr, ptr, ptr, ptr, %struct.dt_lua_state_t, ptr, double, ptr, i32, [47 x i32], i32, i32, ptr, ptr, %struct.dt_sys_resources_t, %struct.dt_backthumb_t, %struct.dt_gimp_t }
%struct.dt_codepath_t = type { i8, [3 x i8] }
%struct.dt_pthread_mutex_t = type { %union.pthread_mutex_t }
%union.pthread_mutex_t = type { %struct.__pthread_mutex_s }
%struct.__pthread_mutex_s = type { i32, i32, i32, i32, i32, i16, i16, %struct.__pthread_internal_list }
%struct.__pthread_internal_list = type { ptr, ptr }
%struct.dt_lua_state_t = type { i32 }
%struct.dt_sys_resources_t = type { i64, i64, ptr, ptr, i32 }
%struct.dt_backthumb_t = type { double, double, i32, i32, i32, i32 }
%struct.dt_gimp_t = type { i32, ptr, ptr, i32, i32 }
%struct.dt_develop_t = type { i32, i32, i32, ptr, double, double, i32, i32, i32, i32, i32, double, i32, i32, i32, ptr, ptr, [8 x i8], %struct.dt_image_t, i32, i32, %struct.dt_pthread_mutex_t, i32, ptr, i32, ptr, i32, ptr, ptr, i32, ptr, ptr, ptr, ptr, i32, i32, ptr, ptr, ptr, ptr, i32, i32, i32, float, float, ptr, i32, %struct.anon.5, %struct.dt_dev_chroma_t, %struct.anon.8, %struct.anon.9, %struct.anon.10, %struct.anon.11, %struct.anon.12, %struct.anon.13, ptr, ptr, %struct.dt_dev_viewport_t, %struct.dt_dev_viewport_t, i32, i32, i32, ptr, [8 x i8] }
%struct.dt_image_t = type { i32, i32, float, float, float, float, float, float, float, [64 x i8], [64 x i8], [128 x i8], [64 x i8], [64 x i8], [64 x i8], [64 x i8], i64, i32, %union.dt_image_correction_data_t, [64 x i8], [64 x i8], [64 x i8], [128 x i8], i32, [256 x i8], i32, i32, i32, i32, i32, i32, i32, i32, i32, i32, float, i32, i32, i32, i32, i32, i32, i64, i64, i64, i64, i32, [12 x i8], %struct.dt_iop_buffer_dsc_t, [9 x float], ptr, i32, i32, %struct.dt_image_raw_parameters_t, %struct.dt_image_geoloc_t, %struct._color_harmony_t, i16, [4 x i16], i32, i32, float, float, [4 x float], [4 x [3 x float]], [4 x float], ptr, ptr, i32, i32, [8 x i8] }
%union.dt_image_correction_data_t = type { %struct.anon.0 }
%struct.anon.0 = type { i32, float, [11 x float], [11 x float], [11 x float], [11 x float], [11 x float] }
%struct.dt_iop_buffer_dsc_t = type { i32, i32, i32, [6 x [6 x i8]], %struct.anon.3, [12 x i8], %struct.anon.4, [4 x float], i32, [12 x i8] }
%struct.anon.3 = type { i16, i16 }
%struct.anon.4 = type { i32, [12 x i8], [4 x float] }
%struct.dt_image_raw_parameters_t = type { i32 }
%struct.dt_image_geoloc_t = type { double, double, double }
%struct._color_harmony_t = type { i32, i32, i32 }
%struct.anon.5 = type { %struct.dt_dev_proxy_exposure_t, ptr, %struct.anon.6, %struct.anon.7 }
%struct.dt_dev_proxy_exposure_t = type { ptr, ptr, ptr, ptr }
%struct.anon.6 = type { ptr, ptr, ptr, ptr, ptr, ptr, ptr, ptr, ptr }
%struct.anon.7 = type { ptr, ptr, ptr, ptr, ptr }
%struct.dt_dev_chroma_t = type { ptr, ptr, [4 x double], [4 x double], [4 x double], i32 }
%struct.anon.8 = type { ptr, ptr, ptr }
%struct.anon.9 = type { ptr, ptr, i32, i32, float, float, i32 }
%struct.anon.10 = type { ptr, ptr, i32, i32, i32, float }
%struct.anon.11 = type { ptr }
%struct.anon.12 = type { ptr, i32 }
%struct.anon.13 = type { ptr, ptr, ptr }
%struct.dt_dev_viewport_t = type { ptr, i32, i32, i32, i32, i32, double, double, double, i32, i32, i32, float, float, float, ptr }
%struct._GList = type { ptr, ptr, ptr }
%struct.dt_iop_module_t = type { i32, ptr, ptr, ptr, ptr, ptr, ptr, ptr, ptr, ptr, ptr, ptr, ptr, ptr, ptr, ptr, ptr, ptr, ptr, ptr, ptr, ptr, ptr, ptr, ptr, ptr, ptr, ptr, ptr, ptr, ptr, ptr, ptr, ptr, ptr, ptr, ptr, ptr, ptr, ptr, ptr, ptr, ptr, ptr, ptr, ptr, ptr, ptr, ptr, ptr, ptr, ptr, ptr, ptr, ptr, ptr, ptr, [20 x i8], i32, i32, i32, i32, i32, i32, i32, [8 x i8], [4 x float], [4 x float], [4 x float], [4 x float], [4 x float], [4 x float], ptr, %struct.dt_dev_histogram_stats_t, [4 x i32], i32, i32, ptr, i32, i32, ptr, ptr, i32, ptr, %struct.dt_pthread_mutex_t, ptr, ptr, ptr, ptr, %struct.anon.14, ptr, ptr, ptr, ptr, ptr, ptr, ptr, i32, ptr, ptr, ptr, ptr, ptr, ptr, ptr, i32, ptr, i32, [128 x i8], i32, ptr, ptr, i32, [12 x i8] }
%struct.dt_dev_histogram_stats_t = type { i32, i64, i32, i32 }
%struct.anon.14 = type { %struct.anon.15, %struct.anon.16 }
%struct.anon.15 = type { ptr, ptr }
%struct.anon.16 = type { ptr, i32 }
%struct.dt_iop_module_so_t = type { %struct.dt_action_t, ptr, ptr, ptr, ptr, ptr, ptr, ptr, ptr, ptr, ptr, ptr, ptr, ptr, ptr, ptr, ptr, ptr, ptr, ptr, ptr, ptr, ptr, ptr, ptr, ptr, ptr, ptr, ptr, ptr, ptr, ptr, ptr, ptr, ptr, ptr, ptr, ptr, ptr, ptr, ptr, ptr, ptr, ptr, ptr, ptr, ptr, ptr, ptr, ptr, ptr, ptr, ptr, ptr, ptr, ptr, ptr, [20 x i8], ptr, i32, ptr, i32, i32 }
%struct.dt_action_t = type { i32, ptr, ptr, ptr, ptr, ptr }

@.str = private unnamed_addr constant [9 x i8] c"colorout\00", align 1
@darktable = external global %struct.darktable_t, align 8
@.str.10 = private unnamed_addr constant [5 x i8] c"type\00", align 1
@.str.11 = private unnamed_addr constant [9 x i8] c"filename\00", align 1
@.str.12 = private unnamed_addr constant [65 x i8] c"[dt_ioppr_get_export_profile_type] can't get colorout parameters\00", align 1
@.str.13 = private unnamed_addr constant [59 x i8] c"[dt_ioppr_get_export_profile_type] can't find colorout iop\00", align 1

; Function Attrs: inlinehint nounwind uwtable
define internal i32 @dt_iop_module_is(ptr noundef %0, ptr noundef %1) #2 {
  %3 = alloca ptr, align 8
  %4 = alloca ptr, align 8
  store ptr %0, ptr %3, align 8, !tbaa !117
  store ptr %1, ptr %4, align 8, !tbaa !28
  %5 = load ptr, ptr %3, align 8, !tbaa !117
  %6 = getelementptr inbounds nuw %struct.dt_iop_module_so_t, ptr %5, i32 0, i32 57
  %7 = getelementptr inbounds [20 x i8], ptr %6, i64 0, i64 0
  %8 = load ptr, ptr %4, align 8, !tbaa !28
  %9 = call i32 @g_strcmp0(ptr noundef %7, ptr noundef %8)
  %10 = icmp ne i32 %9, 0
  %11 = xor i1 %10, true
  %12 = zext i1 %11 to i32
  ret i32 %12
}

; Function Attrs: nounwind uwtable
define void @dt_ioppr_get_export_profile_type(ptr noundef %0, ptr noundef %1, ptr noundef %2) #0 {
  %4 = alloca ptr, align 8
  %5 = alloca ptr, align 8
  %6 = alloca ptr, align 8
  %7 = alloca ptr, align 8
  %8 = alloca ptr, align 8
  %9 = alloca ptr, align 8
  %10 = alloca i32, align 4
  %11 = alloca ptr, align 8
  %12 = alloca ptr, align 8
  %13 = alloca ptr, align 8
  %14 = alloca ptr, align 8
  %15 = alloca ptr, align 8
  store ptr %0, ptr %4, align 8, !tbaa !26
  store ptr %1, ptr %5, align 8, !tbaa !67
  store ptr %2, ptr %6, align 8, !tbaa !118
  %16 = load ptr, ptr %5, align 8, !tbaa !67
  store i32 -1, ptr %16, align 4, !tbaa !11
  %17 = load ptr, ptr %6, align 8, !tbaa !118
  store ptr null, ptr %17, align 8, !tbaa !28
  call void @llvm.lifetime.start.p0(i64 8, ptr %7) #10
  store ptr null, ptr %7, align 8, !tbaa !117
  call void @llvm.lifetime.start.p0(i64 8, ptr %8) #10
  store ptr null, ptr %8, align 8, !tbaa !104
  call void @llvm.lifetime.start.p0(i64 8, ptr %9) #10
  %18 = load ptr, ptr getelementptr inbounds nuw (%struct.darktable_t, ptr @darktable, i32 0, i32 3), align 8, !tbaa !120
  %19 = call ptr @g_list_last(ptr noundef %18)
  store ptr %19, ptr %9, align 8, !tbaa !63
  br label %20

20:                                               ; preds = %45, %3
  %21 = load ptr, ptr %9, align 8, !tbaa !63
  %22 = icmp ne ptr %21, null
  br i1 %22, label %24, label %23

23:                                               ; preds = %20
  store i32 2, ptr %10, align 4
  br label %47

24:                                               ; preds = %20
  call void @llvm.lifetime.start.p0(i64 8, ptr %11) #10
  %25 = load ptr, ptr %9, align 8, !tbaa !63
  %26 = getelementptr inbounds nuw %struct._GList, ptr %25, i32 0, i32 0
  %27 = load ptr, ptr %26, align 8, !tbaa !64
  store ptr %27, ptr %11, align 8, !tbaa !117
  %28 = load ptr, ptr %11, align 8, !tbaa !117
  %29 = call i32 @dt_iop_module_is(ptr noundef %28, ptr noundef @.str)
  %30 = icmp ne i32 %29, 0
  br i1 %30, label %31, label %33

31:                                               ; preds = %24
  %32 = load ptr, ptr %11, align 8, !tbaa !117
  store ptr %32, ptr %7, align 8, !tbaa !117
  store i32 2, ptr %10, align 4
  br label %34

33:                                               ; preds = %24
  store i32 0, ptr %10, align 4
  br label %34

34:                                               ; preds = %33, %31
  call void @llvm.lifetime.end.p0(i64 8, ptr %11) #10
  %35 = load i32, ptr %10, align 4
  switch i32 %35, label %47 [
    i32 0, label %36
  ]

36:                                               ; preds = %34
  br label %37

37:                                               ; preds = %36
  %38 = load ptr, ptr %9, align 8, !tbaa !63
  %39 = icmp ne ptr %38, null
  br i1 %39, label %40, label %44

40:                                               ; preds = %37
  %41 = load ptr, ptr %9, align 8, !tbaa !63
  %42 = getelementptr inbounds nuw %struct._GList, ptr %41, i32 0, i32 2
  %43 = load ptr, ptr %42, align 8, !tbaa !144
  br label %45

44:                                               ; preds = %37
  br label %45

45:                                               ; preds = %44, %40
  %46 = phi ptr [ %43, %40 ], [ null, %44 ]
  store ptr %46, ptr %9, align 8, !tbaa !63
  br label %20

47:                                               ; preds = %34, %23
  call void @llvm.lifetime.end.p0(i64 8, ptr %9) #10
  br label %48

48:                                               ; preds = %47
  %49 = load ptr, ptr %7, align 8, !tbaa !117
  %50 = icmp ne ptr %49, null
  br i1 %50, label %51, label %92

51:                                               ; preds = %48
  %52 = load ptr, ptr %7, align 8, !tbaa !117
  %53 = getelementptr inbounds nuw %struct.dt_iop_module_so_t, ptr %52, i32 0, i32 53
  %54 = load ptr, ptr %53, align 8, !tbaa !121
  %55 = icmp ne ptr %54, null
  br i1 %55, label %56, label %92

56:                                               ; preds = %51
  call void @llvm.lifetime.start.p0(i64 8, ptr %12) #10
  %57 = load ptr, ptr %4, align 8, !tbaa !26
  %58 = getelementptr inbounds nuw %struct.dt_develop_t, ptr %57, i32 0, i32 27
  %59 = load ptr, ptr %58, align 8, !tbaa !125
  %60 = call ptr @g_list_last(ptr noundef %59)
  store ptr %60, ptr %12, align 8, !tbaa !63
  br label %61

61:                                               ; preds = %88, %56
  %62 = load ptr, ptr %12, align 8, !tbaa !63
  %63 = icmp ne ptr %62, null
  br i1 %63, label %65, label %64

64:                                               ; preds = %61
  store i32 5, ptr %10, align 4
  br label %90

65:                                               ; preds = %61
  call void @llvm.lifetime.start.p0(i64 8, ptr %13) #10
  %66 = load ptr, ptr %12, align 8, !tbaa !63
  %67 = getelementptr inbounds nuw %struct._GList, ptr %66, i32 0, i32 0
  %68 = load ptr, ptr %67, align 8, !tbaa !64
  store ptr %68, ptr %13, align 8, !tbaa !104
  %69 = load ptr, ptr %13, align 8, !tbaa !104
  %70 = getelementptr inbounds nuw %struct.dt_iop_module_t, ptr %69, i32 0, i32 106
  %71 = load ptr, ptr %70, align 16, !tbaa !105
  %72 = call i32 @dt_iop_module_is(ptr noundef %71, ptr noundef @.str)
  %73 = icmp ne i32 %72, 0
  br i1 %73, label %74, label %76

74:                                               ; preds = %65
  %75 = load ptr, ptr %13, align 8, !tbaa !104
  store ptr %75, ptr %8, align 8, !tbaa !104
  store i32 5, ptr %10, align 4
  br label %77

76:                                               ; preds = %65
  store i32 0, ptr %10, align 4
  br label %77

77:                                               ; preds = %76, %74
  call void @llvm.lifetime.end.p0(i64 8, ptr %13) #10
  %78 = load i32, ptr %10, align 4
  switch i32 %78, label %90 [
    i32 0, label %79
  ]

79:                                               ; preds = %77
  br label %80

80:                                               ; preds = %79
  %81 = load ptr, ptr %12, align 8, !tbaa !63
  %82 = icmp ne ptr %81, null
  br i1 %82, label %83, label %87

83:                                               ; preds = %80
  %84 = load ptr, ptr %12, align 8, !tbaa !63
  %85 = getelementptr inbounds nuw %struct._GList, ptr %84, i32 0, i32 2
  %86 = load ptr, ptr %85, align 8, !tbaa !144
  br label %88

87:                                               ; preds = %80
  br label %88

88:                                               ; preds = %87, %83
  %89 = phi ptr [ %86, %83 ], [ null, %87 ]
  store ptr %89, ptr %12, align 8, !tbaa !63
  br label %61

90:                                               ; preds = %77, %64
  call void @llvm.lifetime.end.p0(i64 8, ptr %12) #10
  br label %91

91:                                               ; preds = %90
  br label %92

92:                                               ; preds = %91, %51, %48
  %93 = load ptr, ptr %8, align 8, !tbaa !104
  %94 = icmp ne ptr %93, null
  br i1 %94, label %95, label %132

95:                                               ; preds = %92
  call void @llvm.lifetime.start.p0(i64 8, ptr %14) #10
  %96 = load ptr, ptr %7, align 8, !tbaa !117
  %97 = getelementptr inbounds nuw %struct.dt_iop_module_so_t, ptr %96, i32 0, i32 53
  %98 = load ptr, ptr %97, align 8, !tbaa !121
  %99 = load ptr, ptr %8, align 8, !tbaa !104
  %100 = getelementptr inbounds nuw %struct.dt_iop_module_t, ptr %99, i32 0, i32 80
  %101 = load ptr, ptr %100, align 8, !tbaa !126
  %102 = call ptr %98(ptr noundef %101, ptr noundef @.str.10)
  store ptr %102, ptr %14, align 8, !tbaa !67
  call void @llvm.lifetime.start.p0(i64 8, ptr %15) #10
  %103 = load ptr, ptr %7, align 8, !tbaa !117
  %104 = getelementptr inbounds nuw %struct.dt_iop_module_so_t, ptr %103, i32 0, i32 53
  %105 = load ptr, ptr %104, align 8, !tbaa !121
  %106 = load ptr, ptr %8, align 8, !tbaa !104
  %107 = getelementptr inbounds nuw %struct.dt_iop_module_t, ptr %106, i32 0, i32 80
  %108 = load ptr, ptr %107, align 8, !tbaa !126
  %109 = call ptr %105(ptr noundef %108, ptr noundef @.str.11)
  store ptr %109, ptr %15, align 8, !tbaa !28
  %110 = load ptr, ptr %14, align 8, !tbaa !67
  %111 = icmp ne ptr %110, null
  br i1 %111, label %112, label %121

112:                                              ; preds = %95
  %113 = load ptr, ptr %15, align 8, !tbaa !28
  %114 = icmp ne ptr %113, null
  br i1 %114, label %115, label %121

115:                                              ; preds = %112
  %116 = load ptr, ptr %14, align 8, !tbaa !67
  %117 = load i32, ptr %116, align 4, !tbaa !11
  %118 = load ptr, ptr %5, align 8, !tbaa !67
  store i32 %117, ptr %118, align 4, !tbaa !11
  %119 = load ptr, ptr %15, align 8, !tbaa !28
  %120 = load ptr, ptr %6, align 8, !tbaa !118
  store ptr %119, ptr %120, align 8, !tbaa !28
  br label %131

121:                                              ; preds = %112, %95
  br label %122

122:                                              ; preds = %121
  %123 = load i32, ptr getelementptr inbounds nuw (%struct.darktable_t, ptr @darktable, i32 0, i32 2), align 8, !tbaa !103
  %124 = xor i32 %123, -1
  %125 = and i32 0, %124
  %126 = icmp ne i32 %125, 0
  br i1 %126, label %128, label %127

127:                                              ; preds = %122
  call void (ptr, ...) @dt_print_ext(ptr noundef @.str.12)
  br label %128

128:                                              ; preds = %127, %122
  br label %129

129:                                              ; preds = %128
  br label %130

130:                                              ; preds = %129
  br label %131

131:                                              ; preds = %130, %115
  call void @llvm.lifetime.end.p0(i64 8, ptr %15) #10
  call void @llvm.lifetime.end.p0(i64 8, ptr %14) #10
  br label %142

132:                                              ; preds = %92
  br label %133

133:                                              ; preds = %132
  %134 = load i32, ptr getelementptr inbounds nuw (%struct.darktable_t, ptr @darktable, i32 0, i32 2), align 8, !tbaa !103
  %135 = xor i32 %134, -1
  %136 = and i32 0, %135
  %137 = icmp ne i32 %136, 0
  br i1 %137, label %139, label %138

138:                                              ; preds = %133
  call void (ptr, ...) @dt_print_ext(ptr noundef @.str.13)
  br label %139

139:                                              ; preds = %138, %133
  br label %140

140:                                              ; preds = %139
  br label %141

141:                                              ; preds = %140
  br label %142

142:                                              ; preds = %141, %131
  call void @llvm.lifetime.end.p0(i64 8, ptr %8) #10
  call void @llvm.lifetime.end.p0(i64 8, ptr %7) #10
  ret void
}