; Function Attrs: nounwind uwtable
define void @dt_ioppr_get_export_profile_type(ptr noundef readonly captures(none) %0, ptr noundef writeonly captures(none) initializes((0, 4)) %1, ptr noundef writeonly captures(none) initializes((0, 8)) %2) local_unnamed_addr #0 {
  store i32 -1, ptr %1, align 4, !tbaa !108
  store ptr null, ptr %2, align 8, !tbaa !107
  %4 = load ptr, ptr getelementptr inbounds nuw (i8, ptr @darktable, i64 16), align 8, !tbaa !132
  %5 = tail call ptr @g_list_last(ptr noundef %4) #17
  %.not49 = icmp eq ptr %5, null
  br i1 %.not49, label %.thread, label %.lr.ph

.lr.ph:                                           ; preds = %3, %9
  %.03450 = phi ptr [ %11, %9 ], [ %5, %3 ]
  %6 = load ptr, ptr %.03450, align 8, !tbaa !23
  %7 = getelementptr inbounds nuw i8, ptr %6, i64 496
  %8 = tail call i32 @g_strcmp0(ptr noundef nonnull %7, ptr noundef nonnull @.str) #17
  %.not.i.not = icmp eq i32 %8, 0
  br i1 %.not.i.not, label %._crit_edge, label %9

9:                                                ; preds = %.lr.ph
  %10 = getelementptr inbounds nuw i8, ptr %.03450, i64 16
  %11 = load ptr, ptr %10, align 8, !tbaa !133
  %.not = icmp eq ptr %11, null
  br i1 %.not, label %.thread, label %.lr.ph

._crit_edge:                                      ; preds = %.lr.ph
  %12 = getelementptr inbounds nuw i8, ptr %6, i64 464
  %13 = load ptr, ptr %12, align 8, !tbaa !109
  %.not42 = icmp eq ptr %13, null
  br i1 %.not42, label %.thread, label %14

14:                                               ; preds = %._crit_edge
  %15 = getelementptr inbounds nuw i8, ptr %0, i64 2056
  %16 = load ptr, ptr %15, align 8, !tbaa !134
  %17 = tail call ptr @g_list_last(ptr noundef %16) #17
  %.not4353 = icmp eq ptr %17, null
  br i1 %.not4353, label %.thread, label %.lr.ph56

.lr.ph56:                                         ; preds = %14, %23
  %.03554 = phi ptr [ %25, %23 ], [ %17, %14 ]
  %18 = load ptr, ptr %.03554, align 8, !tbaa !23
  %19 = getelementptr inbounds nuw i8, ptr %18, i64 944
  %20 = load ptr, ptr %19, align 16, !tbaa !94
  %21 = getelementptr inbounds nuw i8, ptr %20, i64 496
  %22 = tail call i32 @g_strcmp0(ptr noundef nonnull %21, ptr noundef nonnull @.str) #17
  %.not.i46.not = icmp eq i32 %22, 0
  br i1 %.not.i46.not, label %._crit_edge57, label %23

23:                                               ; preds = %.lr.ph56
  %24 = getelementptr inbounds nuw i8, ptr %.03554, i64 16
  %25 = load ptr, ptr %24, align 8, !tbaa !133
  %.not43 = icmp eq ptr %25, null
  br i1 %.not43, label %.thread, label %.lr.ph56

._crit_edge57:                                    ; preds = %.lr.ph56
  %26 = load ptr, ptr %12, align 8, !tbaa !109
  %27 = getelementptr inbounds nuw i8, ptr %18, i64 680
  %28 = load ptr, ptr %27, align 8, !tbaa !113
  %29 = tail call ptr %26(ptr noundef %28, ptr noundef nonnull @.str.10) #17
  %30 = load ptr, ptr %12, align 8, !tbaa !109
  %31 = load ptr, ptr %27, align 8, !tbaa !113
  %32 = tail call ptr %30(ptr noundef %31, ptr noundef nonnull @.str.11) #17
  %33 = icmp ne ptr %29, null
  %34 = icmp ne ptr %32, null
  %or.cond = select i1 %33, i1 %34, i1 false
  br i1 %or.cond, label %35, label %37

35:                                               ; preds = %._crit_edge57
  %36 = load i32, ptr %29, align 4, !tbaa !108
  store i32 %36, ptr %1, align 4, !tbaa !108
  store ptr %32, ptr %2, align 8, !tbaa !107
  br label %38

37:                                               ; preds = %._crit_edge57
  tail call void (ptr, ...) @dt_print_ext(ptr noundef nonnull @.str.12) #17
  br label %38

.thread:                                          ; preds = %9, %23, %14, %3, %._crit_edge
  tail call void (ptr, ...) @dt_print_ext(ptr noundef nonnull @.str.13) #17
  br label %38

38:                                               ; preds = %35, %37, %.thread
  ret void
}